target datalayout = "e-m:e-p270:32:32-p271:32:32-p272:64:64-i64:64-i128:128-f80:128-n8:16:32:64-S128"
target triple = "x86_64-pc-linux-gnu"

%struct.hwloc_topology = type { i32, i32, i32, ptr, ptr, i64, [20 x i32], [20 x i32], i64, i64, i32, ptr, i64, ptr, i64, [6 x %struct.hwloc_special_level_s], ptr, ptr, %struct.hwloc_binding_hooks, %struct.hwloc_topology_support, %struct.hwloc_infos_s, ptr, ptr, i32, ptr, ptr, i32, i32, ptr, i32, i32, ptr, i32, i32, i32, [5 x float], i32, ptr, ptr, i32, i32, ptr, i32, %struct.hwloc_numanode_attr_s, i32, i32, ptr, i64, i32, ptr, ptr, ptr }
%struct.hwloc_special_level_s = type { i32, ptr, ptr, ptr }
%struct.hwloc_binding_hooks = type { ptr, ptr, ptr, ptr, ptr, ptr, ptr, ptr, ptr, ptr, ptr, ptr, ptr, ptr, ptr, ptr, ptr, ptr, ptr, ptr, ptr, ptr, ptr, ptr }
%struct.hwloc_topology_support = type { ptr, ptr, ptr, ptr }
%struct.hwloc_infos_s = type { ptr, i32, i32 }
%struct.hwloc_numanode_attr_s = type { i64, i32, ptr }
%struct.hwloc_pci_forced_locality_s = type { i32, i32, i32, ptr }

@.str.113 = private unnamed_addr constant [4 x i8] c";\0D\0A\00", align 1
@.str.114 = private unnamed_addr constant [12 x i8] c"%x:%x-%x %x\00", align 1
@.str.115 = private unnamed_addr constant [9 x i8] c"%x:%x %x\00", align 1
@.str.116 = private unnamed_addr constant [6 x i8] c"%x %x\00", align 1

; Function Attrs: nounwind uwtable
define internal void @hwloc_pci_forced_locality_parse_one(ptr noundef %0, ptr noundef %1, ptr noundef %2) #0 {
  %4 = alloca ptr, align 8
  %5 = alloca ptr, align 8
  %6 = alloca ptr, align 8
  %7 = alloca i32, align 4
  %8 = alloca i32, align 4
  %9 = alloca i32, align 4
  %10 = alloca i32, align 4
  %11 = alloca i32, align 4
  %12 = alloca ptr, align 8
  %13 = alloca ptr, align 8
  %14 = alloca i32, align 4
  %15 = alloca ptr, align 8
  store ptr %0, ptr %4, align 8, !tbaa !3
  store ptr %1, ptr %5, align 8, !tbaa !38
  store ptr %2, ptr %6, align 8, !tbaa !104
  call void @llvm.lifetime.start.p0(i64 4, ptr %7) #12
  %16 = load ptr, ptr %4, align 8, !tbaa !3
  %17 = getelementptr inbounds nuw %struct.hwloc_topology, ptr %16, i32 0, i32 45
  %18 = load i32, ptr %17, align 4, !tbaa !33
  store i32 %18, ptr %7, align 4, !tbaa !40
  call void @llvm.lifetime.start.p0(i64 4, ptr %8) #12
  call void @llvm.lifetime.start.p0(i64 4, ptr %9) #12
  call void @llvm.lifetime.start.p0(i64 4, ptr %10) #12
  call void @llvm.lifetime.start.p0(i64 4, ptr %11) #12
  call void @llvm.lifetime.start.p0(i64 8, ptr %12) #12
  call void @llvm.lifetime.start.p0(i64 8, ptr %13) #12
  %19 = load ptr, ptr %5, align 8, !tbaa !38
  %20 = call i32 (ptr, ptr, ...) @__isoc99_sscanf(ptr noundef %19, ptr noundef @.str.114, ptr noundef %8, ptr noundef %9, ptr noundef %10, ptr noundef %11) #12
  %21 = icmp eq i32 %20, 4
  br i1 %21, label %22, label %23

22:                                               ; preds = %3
  br label %37

23:                                               ; preds = %3
  %24 = load ptr, ptr %5, align 8, !tbaa !38
  %25 = call i32 (ptr, ptr, ...) @__isoc99_sscanf(ptr noundef %24, ptr noundef @.str.115, ptr noundef %8, ptr noundef %9, ptr noundef %11) #12
  %26 = icmp eq i32 %25, 3
  br i1 %26, label %27, label %29

27:                                               ; preds = %23
  %28 = load i32, ptr %9, align 4, !tbaa !40
  store i32 %28, ptr %10, align 4, !tbaa !40
  br label %36

29:                                               ; preds = %23
  %30 = load ptr, ptr %5, align 8, !tbaa !38
  %31 = call i32 (ptr, ptr, ...) @__isoc99_sscanf(ptr noundef %30, ptr noundef @.str.116, ptr noundef %8, ptr noundef %11) #12
  %32 = icmp eq i32 %31, 2
  br i1 %32, label %33, label %34

33:                                               ; preds = %29
  store i32 0, ptr %9, align 4, !tbaa !40
  store i32 255, ptr %10, align 4, !tbaa !40
  br label %35

34:                                               ; preds = %29
  store i32 1, ptr %14, align 4
  br label %132

35:                                               ; preds = %33
  br label %36

36:                                               ; preds = %35, %27
  br label %37

37:                                               ; preds = %36, %22
  %38 = load ptr, ptr %5, align 8, !tbaa !38
  %39 = call ptr @strchr(ptr noundef %38, i32 noundef 32) #14
  store ptr %39, ptr %13, align 8, !tbaa !38
  %40 = load ptr, ptr %13, align 8, !tbaa !38
  %41 = icmp ne ptr %40, null
  br i1 %41, label %43, label %42

42:                                               ; preds = %37
  store i32 1, ptr %14, align 4
  br label %132

43:                                               ; preds = %37
  %44 = load ptr, ptr %13, align 8, !tbaa !38
  %45 = getelementptr inbounds nuw i8, ptr %44, i32 1
  store ptr %45, ptr %13, align 8, !tbaa !38
  %46 = call noalias ptr @hwloc_bitmap_alloc()
  store ptr %46, ptr %12, align 8, !tbaa !81
  %47 = load ptr, ptr %12, align 8, !tbaa !81
  %48 = load ptr, ptr %13, align 8, !tbaa !38
  %49 = call i32 @hwloc_bitmap_sscanf(ptr noundef %47, ptr noundef %48)
  %50 = load ptr, ptr %6, align 8, !tbaa !104
  %51 = load i32, ptr %50, align 4, !tbaa !40
  %52 = icmp ne i32 %51, 0
  br i1 %52, label %64, label %53

53:                                               ; preds = %43
  %54 = call noalias ptr @malloc(i64 noundef 24) #13
  %55 = load ptr, ptr %4, align 8, !tbaa !3
  %56 = getelementptr inbounds nuw %struct.hwloc_topology, ptr %55, i32 0, i32 46
  store ptr %54, ptr %56, align 8, !tbaa !34
  %57 = load ptr, ptr %4, align 8, !tbaa !3
  %58 = getelementptr inbounds nuw %struct.hwloc_topology, ptr %57, i32 0, i32 46
  %59 = load ptr, ptr %58, align 8, !tbaa !34
  %60 = icmp ne ptr %59, null
  br i1 %60, label %62, label %61

61:                                               ; preds = %53
  br label %130

62:                                               ; preds = %53
  %63 = load ptr, ptr %6, align 8, !tbaa !104
  store i32 1, ptr %63, align 4, !tbaa !40
  br label %93

64:                                               ; preds = %43
  %65 = load i32, ptr %7, align 4, !tbaa !40
  %66 = load ptr, ptr %6, align 8, !tbaa !104
  %67 = load i32, ptr %66, align 4, !tbaa !40
  %68 = icmp uge i32 %65, %67
  br i1 %68, label %69, label %92

69:                                               ; preds = %64
  call void @llvm.lifetime.start.p0(i64 8, ptr %15) #12
  %70 = load ptr, ptr %4, align 8, !tbaa !3
  %71 = getelementptr inbounds nuw %struct.hwloc_topology, ptr %70, i32 0, i32 46
  %72 = load ptr, ptr %71, align 8, !tbaa !34
  %73 = load ptr, ptr %6, align 8, !tbaa !104
  %74 = load i32, ptr %73, align 4, !tbaa !40
  %75 = mul i32 2, %74
  %76 = zext i32 %75 to i64
  %77 = mul i64 %76, 24
  %78 = call ptr @realloc(ptr noundef %72, i64 noundef %77) #16
  store ptr %78, ptr %15, align 8, !tbaa !106
  %79 = load ptr, ptr %15, align 8, !tbaa !106
  %80 = icmp ne ptr %79, null
  br i1 %80, label %82, label %81

81:                                               ; preds = %69
  store i32 2, ptr %14, align 4
  br label %89

82:                                               ; preds = %69
  %83 = load ptr, ptr %15, align 8, !tbaa !106
  %84 = load ptr, ptr %4, align 8, !tbaa !3
  %85 = getelementptr inbounds nuw %struct.hwloc_topology, ptr %84, i32 0, i32 46
  store ptr %83, ptr %85, align 8, !tbaa !34
  %86 = load ptr, ptr %6, align 8, !tbaa !104
  %87 = load i32, ptr %86, align 4, !tbaa !40
  %88 = mul i32 %87, 2
  store i32 %88, ptr %86, align 4, !tbaa !40
  store i32 0, ptr %14, align 4
  br label %89

89:                                               ; preds = %81, %82
  call void @llvm.lifetime.end.p0(i64 8, ptr %15) #12
  %90 = load i32, ptr %14, align 4
  switch i32 %90, label %132 [
    i32 0, label %91
    i32 2, label %130
  ]

91:                                               ; preds = %89
  br label %92

92:                                               ; preds = %91, %64
  br label %93

93:                                               ; preds = %92, %62
  %94 = load i32, ptr %8, align 4, !tbaa !40
  %95 = load ptr, ptr %4, align 8, !tbaa !3
  %96 = getelementptr inbounds nuw %struct.hwloc_topology, ptr %95, i32 0, i32 46
  %97 = load ptr, ptr %96, align 8, !tbaa !34
  %98 = load i32, ptr %7, align 4, !tbaa !40
  %99 = zext i32 %98 to i64
  %100 = getelementptr inbounds nuw %struct.hwloc_pci_forced_locality_s, ptr %97, i64 %99
  %101 = getelementptr inbounds nuw %struct.hwloc_pci_forced_locality_s, ptr %100, i32 0, i32 0
  store i32 %94, ptr %101, align 8, !tbaa !89
  %102 = load i32, ptr %9, align 4, !tbaa !40
  %103 = load ptr, ptr %4, align 8, !tbaa !3
  %104 = getelementptr inbounds nuw %struct.hwloc_topology, ptr %103, i32 0, i32 46
  %105 = load ptr, ptr %104, align 8, !tbaa !34
  %106 = load i32, ptr %7, align 4, !tbaa !40
  %107 = zext i32 %106 to i64
  %108 = getelementptr inbounds nuw %struct.hwloc_pci_forced_locality_s, ptr %105, i64 %107
  %109 = getelementptr inbounds nuw %struct.hwloc_pci_forced_locality_s, ptr %108, i32 0, i32 1
  store i32 %102, ptr %109, align 4, !tbaa !90
  %110 = load i32, ptr %10, align 4, !tbaa !40
  %111 = load ptr, ptr %4, align 8, !tbaa !3
  %112 = getelementptr inbounds nuw %struct.hwloc_topology, ptr %111, i32 0, i32 46
  %113 = load ptr, ptr %112, align 8, !tbaa !34
  %114 = load i32, ptr %7, align 4, !tbaa !40
  %115 = zext i32 %114 to i64
  %116 = getelementptr inbounds nuw %struct.hwloc_pci_forced_locality_s, ptr %113, i64 %115
  %117 = getelementptr inbounds nuw %struct.hwloc_pci_forced_locality_s, ptr %116, i32 0, i32 2
  store i32 %110, ptr %117, align 8, !tbaa !91
  %118 = load ptr, ptr %12, align 8, !tbaa !81
  %119 = load ptr, ptr %4, align 8, !tbaa !3
  %120 = getelementptr inbounds nuw %struct.hwloc_topology, ptr %119, i32 0, i32 46
  %121 = load ptr, ptr %120, align 8, !tbaa !34
  %122 = load i32, ptr %7, align 4, !tbaa !40
  %123 = zext i32 %122 to i64
  %124 = getelementptr inbounds nuw %struct.hwloc_pci_forced_locality_s, ptr %121, i64 %123
  %125 = getelementptr inbounds nuw %struct.hwloc_pci_forced_locality_s, ptr %124, i32 0, i32 3
  store ptr %118, ptr %125, align 8, !tbaa !48
  %126 = load ptr, ptr %4, align 8, !tbaa !3
  %127 = getelementptr inbounds nuw %struct.hwloc_topology, ptr %126, i32 0, i32 45
  %128 = load i32, ptr %127, align 4, !tbaa !33
  %129 = add i32 %128, 1
  store i32 %129, ptr %127, align 4, !tbaa !33
  store i32 1, ptr %14, align 4
  br label %132

130:                                              ; preds = %89, %61
  %131 = load ptr, ptr %12, align 8, !tbaa !81
  call void @hwloc_bitmap_free(ptr noundef %131)
  store i32 1, ptr %14, align 4
  br label %132

132:                                              ; preds = %130, %93, %89, %42, %34
  call void @llvm.lifetime.end.p0(i64 8, ptr %13) #12
  call void @llvm.lifetime.end.p0(i64 8, ptr %12) #12
  call void @llvm.lifetime.end.p0(i64 4, ptr %11) #12
  call void @llvm.lifetime.end.p0(i64 4, ptr %10) #12
  call void @llvm.lifetime.end.p0(i64 4, ptr %9) #12
  call void @llvm.lifetime.end.p0(i64 4, ptr %8) #12
  call void @llvm.lifetime.end.p0(i64 4, ptr %7) #12
  ret void
}

; Function Attrs: nounwind uwtable
define internal void @hwloc_pci_forced_locality_parse(ptr noundef %0, ptr noundef %1) #0 {
  %3 = alloca ptr, align 8
  %4 = alloca ptr, align 8
  %5 = alloca ptr, align 8
  %6 = alloca i32, align 4
  %7 = alloca ptr, align 8
  %8 = alloca i64, align 8
  %9 = alloca ptr, align 8
  %10 = alloca i32, align 4
  store ptr %0, ptr %3, align 8, !tbaa !3
  store ptr %1, ptr %4, align 8, !tbaa !38
  call void @llvm.lifetime.start.p0(i64 8, ptr %5) #12
  %11 = load ptr, ptr %4, align 8, !tbaa !38
  %12 = call noalias ptr @strdup(ptr noundef %11) #12
  store ptr %12, ptr %5, align 8, !tbaa !38
  call void @llvm.lifetime.start.p0(i64 4, ptr %6) #12
  store i32 0, ptr %6, align 4, !tbaa !40
  call void @llvm.lifetime.start.p0(i64 8, ptr %7) #12
  %13 = load ptr, ptr %5, align 8, !tbaa !38
  store ptr %13, ptr %7, align 8, !tbaa !38
  br label %14

14:                                               ; preds = %52, %2
  br label %15

15:                                               ; preds = %14
  call void @llvm.lifetime.start.p0(i64 8, ptr %8) #12
  %16 = load ptr, ptr %7, align 8, !tbaa !38
  %17 = call i64 @strcspn(ptr noundef %16, ptr noundef @.str.113) #14
  store i64 %17, ptr %8, align 8, !tbaa !47
  call void @llvm.lifetime.start.p0(i64 8, ptr %9) #12
  store ptr null, ptr %9, align 8, !tbaa !38
  %18 = load ptr, ptr %7, align 8, !tbaa !38
  %19 = load i64, ptr %8, align 8, !tbaa !47
  %20 = getelementptr inbounds nuw i8, ptr %18, i64 %19
  %21 = load i8, ptr %20, align 1, !tbaa !44
  %22 = sext i8 %21 to i32
  %23 = icmp ne i32 %22, 0
  br i1 %23, label %24, label %41

24:                                               ; preds = %15
  %25 = load ptr, ptr %7, align 8, !tbaa !38
  %26 = load i64, ptr %8, align 8, !tbaa !47
  %27 = getelementptr inbounds nuw i8, ptr %25, i64 %26
  store i8 0, ptr %27, align 1, !tbaa !44
  %28 = load ptr, ptr %7, align 8, !tbaa !38
  %29 = load i64, ptr %8, align 8, !tbaa !47
  %30 = add i64 %29, 1
  %31 = getelementptr inbounds nuw i8, ptr %28, i64 %30
  %32 = load i8, ptr %31, align 1, !tbaa !44
  %33 = sext i8 %32 to i32
  %34 = icmp ne i32 %33, 0
  br i1 %34, label %35, label %40

35:                                               ; preds = %24
  %36 = load ptr, ptr %7, align 8, !tbaa !38
  %37 = load i64, ptr %8, align 8, !tbaa !47
  %38 = getelementptr inbounds nuw i8, ptr %36, i64 %37
  %39 = getelementptr inbounds i8, ptr %38, i64 1
  store ptr %39, ptr %9, align 8, !tbaa !38
  br label %40

40:                                               ; preds = %35, %24
  br label %41

41:                                               ; preds = %40, %15
  %42 = load ptr, ptr %3, align 8, !tbaa !3
  %43 = load ptr, ptr %7, align 8, !tbaa !38
  call void @hwloc_pci_forced_locality_parse_one(ptr noundef %42, ptr noundef %43, ptr noundef %6)
  %44 = load ptr, ptr %9, align 8, !tbaa !38
  %45 = icmp ne ptr %44, null
  br i1 %45, label %46, label %48

46:                                               ; preds = %41
  %47 = load ptr, ptr %9, align 8, !tbaa !38
  store ptr %47, ptr %7, align 8, !tbaa !38
  br label %49

48:                                               ; preds = %41
  store i32 3, ptr %10, align 4
  br label %50

49:                                               ; preds = %46
  store i32 0, ptr %10, align 4
  br label %50

50:                                               ; preds = %49, %48
  call void @llvm.lifetime.end.p0(i64 8, ptr %9) #12
  call void @llvm.lifetime.end.p0(i64 8, ptr %8) #12
  %51 = load i32, ptr %10, align 4
  switch i32 %51, label %55 [
    i32 0, label %52
    i32 3, label %53
  ]

52:                                               ; preds = %50
  br label %14

53:                                               ; preds = %50
  %54 = load ptr, ptr %5, align 8, !tbaa !38
  call void @free(ptr noundef %54) #12
  call void @llvm.lifetime.end.p0(i64 8, ptr %7) #12
  call void @llvm.lifetime.end.p0(i64 4, ptr %6) #12
  call void @llvm.lifetime.end.p0(i64 8, ptr %5) #12
  ret void

55:                                               ; preds = %50
  unreachable
}