; Function Attrs: nounwind uwtable
define internal fastcc void @hwloc_pci_forced_locality_parse(ptr noundef captures(none) %0, ptr noundef nonnull readonly captures(none) %1) unnamed_addr #1 {
  %3 = alloca i32, align 4
  %4 = alloca i32, align 4
  %5 = alloca i32, align 4
  %6 = alloca i32, align 4
  %7 = tail call noalias ptr @strdup(ptr noundef nonnull %1) #22
  %8 = getelementptr inbounds nuw i8, ptr %0, i64 884
  %9 = getelementptr inbounds nuw i8, ptr %0, i64 888
  br label %10

10:                                               ; preds = %hwloc_pci_forced_locality_parse_one.exit, %2
  %.0 = phi i32 [ 0, %2 ], [ %.2, %hwloc_pci_forced_locality_parse_one.exit ]
  %.017 = phi ptr [ %7, %2 ], [ %.016, %hwloc_pci_forced_locality_parse_one.exit ]
  %11 = call i64 @strcspn(ptr noundef %.017, ptr noundef nonnull @.str.113) #25
  %12 = getelementptr inbounds nuw i8, ptr %.017, i64 %11
  %13 = load i8, ptr %12, align 1, !tbaa !35
  %.not = icmp eq i8 %13, 0
  br i1 %.not, label %17, label %14

14:                                               ; preds = %10
  store i8 0, ptr %12, align 1, !tbaa !35
  %15 = getelementptr i8, ptr %12, i64 1
  %16 = load i8, ptr %15, align 1, !tbaa !35
  %.not18 = icmp eq i8 %16, 0
  %spec.select = select i1 %.not18, ptr null, ptr %15
  br label %17

17:                                               ; preds = %14, %10
  %.016 = phi ptr [ null, %10 ], [ %spec.select, %14 ]
  %18 = load i32, ptr %8, align 4, !tbaa !38
  call void @llvm.lifetime.start.p0(i64 4, ptr nonnull %3) #22
  call void @llvm.lifetime.start.p0(i64 4, ptr nonnull %4) #22
  call void @llvm.lifetime.start.p0(i64 4, ptr nonnull %5) #22
  call void @llvm.lifetime.start.p0(i64 4, ptr nonnull %6) #22
  %19 = call i32 (ptr, ptr, ...) @__isoc99_sscanf(ptr noundef nonnull %.017, ptr noundef nonnull @.str.114, ptr noundef nonnull %3, ptr noundef nonnull %4, ptr noundef nonnull %5, ptr noundef nonnull %6) #22
  %20 = icmp eq i32 %19, 4
  br i1 %20, label %30, label %21

21:                                               ; preds = %17
  %22 = call i32 (ptr, ptr, ...) @__isoc99_sscanf(ptr noundef nonnull %.017, ptr noundef nonnull @.str.115, ptr noundef nonnull %3, ptr noundef nonnull %4, ptr noundef nonnull %6) #22
  %23 = icmp eq i32 %22, 3
  br i1 %23, label %24, label %26

24:                                               ; preds = %21
  %25 = load i32, ptr %4, align 4, !tbaa !39
  br label %.sink.split.i

26:                                               ; preds = %21
  %27 = call i32 (ptr, ptr, ...) @__isoc99_sscanf(ptr noundef nonnull %.017, ptr noundef nonnull @.str.116, ptr noundef nonnull %3, ptr noundef nonnull %6) #22
  %28 = icmp eq i32 %27, 2
  br i1 %28, label %29, label %hwloc_pci_forced_locality_parse_one.exit

29:                                               ; preds = %26
  store i32 0, ptr %4, align 4, !tbaa !39
  br label %.sink.split.i

.sink.split.i:                                    ; preds = %29, %24
  %.sink.i = phi i32 [ %25, %24 ], [ 255, %29 ]
  store i32 %.sink.i, ptr %5, align 4, !tbaa !39
  br label %30

30:                                               ; preds = %.sink.split.i, %17
  %31 = call ptr @strchr(ptr noundef nonnull dereferenceable(1) %.017, i32 noundef 32) #25
  %.not.i = icmp eq ptr %31, null
  br i1 %.not.i, label %hwloc_pci_forced_locality_parse_one.exit, label %32

32:                                               ; preds = %30
  %33 = getelementptr inbounds nuw i8, ptr %31, i64 1
  %34 = call noalias ptr @hwloc_bitmap_alloc() #22
  %35 = call i32 @hwloc_bitmap_sscanf(ptr noundef %34, ptr noundef nonnull %33) #22
  %.not35.i = icmp eq i32 %.0, 0
  br i1 %.not35.i, label %36, label %38

36:                                               ; preds = %32
  %37 = call noalias dereferenceable_or_null(24) ptr @malloc(i64 noundef 24) #23
  store ptr %37, ptr %9, align 8, !tbaa !40
  %.not36.i = icmp eq ptr %37, null
  br i1 %.not36.i, label %55, label %._crit_edge.i

38:                                               ; preds = %32
  %.not37.i = icmp ult i32 %18, %.0
  %.pre.i = load ptr, ptr %9, align 8, !tbaa !40
  br i1 %.not37.i, label %._crit_edge.i, label %39

39:                                               ; preds = %38
  %40 = shl i32 %.0, 1
  %41 = zext i32 %40 to i64
  %42 = mul nuw nsw i64 %41, 24
  %43 = call ptr @realloc(ptr noundef %.pre.i, i64 noundef %42) #26
  %.not38.i = icmp eq ptr %43, null
  br i1 %.not38.i, label %55, label %.thread.i

.thread.i:                                        ; preds = %39
  store ptr %43, ptr %9, align 8, !tbaa !40
  br label %._crit_edge.i

._crit_edge.i:                                    ; preds = %36, %.thread.i, %38
  %.1 = phi i32 [ %.0, %38 ], [ %40, %.thread.i ], [ 1, %36 ]
  %44 = phi ptr [ %.pre.i, %38 ], [ %43, %.thread.i ], [ %37, %36 ]
  %45 = load i32, ptr %3, align 4, !tbaa !39
  %46 = zext i32 %18 to i64
  %47 = getelementptr inbounds nuw %struct.hwloc_pci_forced_locality_s, ptr %44, i64 %46
  store i32 %45, ptr %47, align 8, !tbaa !41
  %48 = load i32, ptr %4, align 4, !tbaa !39
  %49 = getelementptr inbounds nuw %struct.hwloc_pci_forced_locality_s, ptr %44, i64 %46, i32 1
  store i32 %48, ptr %49, align 4, !tbaa !43
  %50 = load i32, ptr %5, align 4, !tbaa !39
  %51 = getelementptr inbounds nuw %struct.hwloc_pci_forced_locality_s, ptr %44, i64 %46, i32 2
  store i32 %50, ptr %51, align 8, !tbaa !44
  %52 = getelementptr inbounds nuw %struct.hwloc_pci_forced_locality_s, ptr %44, i64 %46, i32 3
  store ptr %34, ptr %52, align 8, !tbaa !45
  %53 = load i32, ptr %8, align 4, !tbaa !38
  %54 = add i32 %53, 1
  store i32 %54, ptr %8, align 4, !tbaa !38
  br label %hwloc_pci_forced_locality_parse_one.exit

55:                                               ; preds = %39, %36
  call void @hwloc_bitmap_free(ptr noundef %34) #22
  br label %hwloc_pci_forced_locality_parse_one.exit

hwloc_pci_forced_locality_parse_one.exit:         ; preds = %26, %30, %._crit_edge.i, %55
  %.2 = phi i32 [ %.0, %30 ], [ %.0, %55 ], [ %.1, %._crit_edge.i ], [ %.0, %26 ]
  call void @llvm.lifetime.end.p0(i64 4, ptr nonnull %6) #22
  call void @llvm.lifetime.end.p0(i64 4, ptr nonnull %5) #22
  call void @llvm.lifetime.end.p0(i64 4, ptr nonnull %4) #22
  call void @llvm.lifetime.end.p0(i64 4, ptr nonnull %3) #22
  %.not19 = icmp eq ptr %.016, null
  br i1 %.not19, label %56, label %10

56:                                               ; preds = %hwloc_pci_forced_locality_parse_one.exit
  call void @free(ptr noundef %7) #22
  ret void
}